target datalayout = "e-m:e-p270:32:32-p271:32:32-p272:64:64-i64:64-i128:128-f80:128-n8:16:32:64-S128"
target triple = "x86_64-pc-linux-gnu"

%struct.slurm_conf_t = type { i64, ptr, i16, ptr, ptr, ptr, ptr, ptr, i16, ptr, ptr, ptr, ptr, ptr, ptr, ptr, i16, ptr, ptr, ptr, ptr, i16, ptr, ptr, ptr, i64, ptr, ptr, ptr, ptr, i16, ptr, ptr, i16, i32, ptr, i32, ptr, i32, i32, ptr, ptr, i64, i64, ptr, i16, i16, ptr, i32, i32, ptr, i32, ptr, i32, i16, i16, i16, ptr, i16, i16, ptr, ptr, i32, i16, i16, ptr, i32, i16, ptr, ptr, ptr, ptr, i16, ptr, ptr, ptr, ptr, i32, ptr, ptr, ptr, ptr, i16, i16, ptr, i32, i32, i32, i16, i16, ptr, ptr, i16, ptr, ptr, i32, i32, i32, i32, i32, i64, i32, i32, i16, ptr, ptr, i32, ptr, ptr, ptr, i16, i32, ptr, ptr, i16, ptr, ptr, i32, i16, ptr, ptr, ptr, ptr, i32, i32, i16, i16, i32, ptr, i16, ptr, i32, i32, i32, i32, i32, i32, ptr, i16, ptr, ptr, i32, i16, ptr, i32, i16, i16, ptr, ptr, ptr, i16, ptr, ptr, ptr, ptr, i16, i16, ptr, i16, ptr, i16, ptr, i16, ptr, i16, ptr, ptr, ptr, ptr, i16, ptr, ptr, ptr, i32, ptr, i32, ptr, ptr, i16, ptr, ptr, i32, i16, ptr, ptr, i16, i16, ptr, i16, ptr, ptr, ptr, i32, ptr, i16, i16, ptr, ptr, ptr, ptr, ptr, ptr, ptr, ptr, i16, i32, i16, ptr, ptr, ptr, ptr, i32, ptr, ptr, ptr, i16, ptr, ptr, ptr, i16, ptr, i16, ptr, i16, i16, ptr }
%struct.batch_job_launch_msg = type { ptr, ptr, i32, i32, ptr, i32, i32, i32, i32, i32, i32, ptr, i32, i32, i16, ptr, ptr, ptr, i16, i16, ptr, i32, ptr, ptr, ptr, ptr, ptr, ptr, ptr, i32, ptr, i32, ptr, i16, ptr, i8, i8, ptr, i64, i64, i16, ptr, ptr, i32, ptr, ptr, ptr, i8 }

@slurm_conf = external global %struct.slurm_conf_t, align 8
@.str = private unnamed_addr constant [43 x i8] c"%s: %s: job %u CPU input mask for node: %s\00", align 1
@plugin_type = external constant [0 x i8], align 1
@__func__.batch_bind = private unnamed_addr constant [11 x i8] c"batch_bind\00", align 1
@.str.1 = private unnamed_addr constant [46 x i8] c"%s: %s: job %u CPU final HW mask for node: %s\00", align 1
@.str.2 = private unnamed_addr constant [25 x i8] c"job %u allocated no CPUs\00", align 1

; Function Attrs: nounwind uwtable
define dso_local void @batch_bind(ptr noundef %0) #0 {
  %2 = alloca ptr, align 8
  %3 = alloca ptr, align 8
  %4 = alloca i32, align 4
  %5 = alloca i16, align 2
  %6 = alloca i16, align 2
  %7 = alloca i16, align 2
  store ptr %0, ptr %2, align 8
  call void @llvm.lifetime.start.p0(i64 8, ptr %3) #7
  call void @llvm.lifetime.start.p0(i64 4, ptr %4) #7
  store i32 0, ptr %4, align 4
  call void @llvm.lifetime.start.p0(i64 2, ptr %5) #7
  store i16 0, ptr %5, align 2
  call void @llvm.lifetime.start.p0(i64 2, ptr %6) #7
  store i16 0, ptr %6, align 2
  call void @llvm.lifetime.start.p0(i64 2, ptr %7) #7
  store i16 0, ptr %7, align 2
  %8 = load ptr, ptr %2, align 8
  %9 = getelementptr inbounds nuw %struct.batch_job_launch_msg, ptr %8, i32 0, i32 34
  %10 = load ptr, ptr %9, align 8
  %11 = call ptr @_get_avail_map(ptr noundef %10, ptr noundef %5, ptr noundef %6, ptr noundef %7)
  store ptr %11, ptr %3, align 8
  %12 = load ptr, ptr %3, align 8
  %13 = icmp ne ptr %12, null
  br i1 %13, label %14, label %17

14:                                               ; preds = %1
  %15 = load ptr, ptr %3, align 8
  %16 = call i32 @slurm_bit_set_count(ptr noundef %15)
  store i32 %16, ptr %4, align 4
  br label %17

17:                                               ; preds = %14, %1
  call void @llvm.lifetime.end.p0(i64 2, ptr %7) #7
  call void @llvm.lifetime.end.p0(i64 2, ptr %6) #7
  call void @llvm.lifetime.end.p0(i64 2, ptr %5) #7
  %18 = load i32, ptr %4, align 4
  %19 = icmp ne i32 %18, 0
  br i1 %19, label %20, label %86

20:                                               ; preds = %17
  %21 = load ptr, ptr %2, align 8
  %22 = getelementptr inbounds nuw %struct.batch_job_launch_msg, ptr %21, i32 0, i32 14
  store i16 256, ptr %22, align 8
  %23 = load i32, ptr getelementptr inbounds nuw (%struct.slurm_conf_t, ptr @slurm_conf, i32 0, i32 211), align 8
  %24 = and i32 %23, 1
  %25 = icmp ne i32 %24, 0
  br i1 %25, label %26, label %33

26:                                               ; preds = %20
  %27 = load ptr, ptr %2, align 8
  %28 = getelementptr inbounds nuw %struct.batch_job_launch_msg, ptr %27, i32 0, i32 14
  %29 = load i16, ptr %28, align 8
  %30 = zext i16 %29 to i32
  %31 = or i32 %30, 1
  %32 = trunc i32 %31 to i16
  store i16 %32, ptr %28, align 8
  br label %33

33:                                               ; preds = %26, %20
  %34 = load ptr, ptr %2, align 8
  %35 = getelementptr inbounds nuw %struct.batch_job_launch_msg, ptr %34, i32 0, i32 15
  call void @slurm_xfree(ptr noundef %35)
  %36 = load ptr, ptr %3, align 8
  %37 = call ptr @slurm_bit_fmt_hexmask(ptr noundef %36)
  %38 = load ptr, ptr %2, align 8
  %39 = getelementptr inbounds nuw %struct.batch_job_launch_msg, ptr %38, i32 0, i32 15
  store ptr %37, ptr %39, align 8
  br label %40

40:                                               ; preds = %33
  br label %41

41:                                               ; preds = %40
  %42 = call i32 @slurm_get_log_level()
  %43 = icmp sge i32 %42, 3
  br i1 %43, label %44, label %51

44:                                               ; preds = %41
  %45 = load ptr, ptr %2, align 8
  %46 = getelementptr inbounds nuw %struct.batch_job_launch_msg, ptr %45, i32 0, i32 9
  %47 = load i32, ptr %46, align 8
  %48 = load ptr, ptr %2, align 8
  %49 = getelementptr inbounds nuw %struct.batch_job_launch_msg, ptr %48, i32 0, i32 15
  %50 = load ptr, ptr %49, align 8
  call void (i32, ptr, ...) @slurm_log_var(i32 noundef 3, ptr noundef @.str, ptr noundef @plugin_type, ptr noundef @__func__.batch_bind, i32 noundef %47, ptr noundef %50)
  br label %51

51:                                               ; preds = %44, %41
  br label %52

52:                                               ; preds = %51
  br label %53

53:                                               ; preds = %52
  br label %54

54:                                               ; preds = %53
  br label %55

55:                                               ; preds = %54
  call void @_lllp_map_abstract_masks(i32 noundef 1, ptr noundef %3)
  %56 = load ptr, ptr %2, align 8
  %57 = getelementptr inbounds nuw %struct.batch_job_launch_msg, ptr %56, i32 0, i32 14
  %58 = load i16, ptr %57, align 8
  %59 = zext i16 %58 to i32
  %60 = and i32 %59, 16
  %61 = icmp ne i32 %60, 0
  br i1 %61, label %62, label %63

62:                                               ; preds = %55
  call void @_match_masks_to_ldom(i32 noundef 1, ptr noundef %3)
  br label %63

63:                                               ; preds = %62, %55
  %64 = load ptr, ptr %2, align 8
  %65 = getelementptr inbounds nuw %struct.batch_job_launch_msg, ptr %64, i32 0, i32 15
  call void @slurm_xfree(ptr noundef %65)
  %66 = load ptr, ptr %3, align 8
  %67 = call ptr @slurm_bit_fmt_hexmask(ptr noundef %66)
  %68 = load ptr, ptr %2, align 8
  %69 = getelementptr inbounds nuw %struct.batch_job_launch_msg, ptr %68, i32 0, i32 15
  store ptr %67, ptr %69, align 8
  br label %70

70:                                               ; preds = %63
  br label %71

71:                                               ; preds = %70
  %72 = call i32 @slurm_get_log_level()
  %73 = icmp sge i32 %72, 3
  br i1 %73, label %74, label %81

74:                                               ; preds = %71
  %75 = load ptr, ptr %2, align 8
  %76 = getelementptr inbounds nuw %struct.batch_job_launch_msg, ptr %75, i32 0, i32 9
  %77 = load i32, ptr %76, align 8
  %78 = load ptr, ptr %2, align 8
  %79 = getelementptr inbounds nuw %struct.batch_job_launch_msg, ptr %78, i32 0, i32 15
  %80 = load ptr, ptr %79, align 8
  call void (i32, ptr, ...) @slurm_log_var(i32 noundef 3, ptr noundef @.str.1, ptr noundef @plugin_type, ptr noundef @__func__.batch_bind, i32 noundef %77, ptr noundef %80)
  br label %81

81:                                               ; preds = %74, %71
  br label %82

82:                                               ; preds = %81
  br label %83

83:                                               ; preds = %82
  br label %84

84:                                               ; preds = %83
  br label %85

85:                                               ; preds = %84
  br label %91

86:                                               ; preds = %17
  %87 = load ptr, ptr %2, align 8
  %88 = getelementptr inbounds nuw %struct.batch_job_launch_msg, ptr %87, i32 0, i32 9
  %89 = load i32, ptr %88, align 8
  %90 = call i32 (ptr, ...) @slurm_error(ptr noundef @.str.2, i32 noundef %89)
  br label %91

91:                                               ; preds = %86, %85
  br label %92

92:                                               ; preds = %91
  %93 = load ptr, ptr %3, align 8
  %94 = icmp ne ptr %93, null
  br i1 %94, label %95, label %96

95:                                               ; preds = %92
  call void @slurm_bit_free(ptr noundef %3)
  br label %96

96:                                               ; preds = %95, %92
  store ptr null, ptr %3, align 8
  br label %97

97:                                               ; preds = %96
  br label %98

98:                                               ; preds = %97
  call void @llvm.lifetime.end.p0(i64 4, ptr %4) #7
  call void @llvm.lifetime.end.p0(i64 8, ptr %3) #7
  ret void
}