; Function Attrs: nounwind uwtable
define dso_local void @batch_bind(ptr noundef %0) local_unnamed_addr #0 {
  %2 = alloca ptr, align 8
  %3 = alloca i16, align 2
  %4 = alloca i16, align 2
  %5 = alloca i16, align 2
  call void @llvm.lifetime.start.p0(i64 8, ptr nonnull %2) #7
  call void @llvm.lifetime.start.p0(i64 2, ptr nonnull %3) #7
  call void @llvm.lifetime.start.p0(i64 2, ptr nonnull %4) #7
  call void @llvm.lifetime.start.p0(i64 2, ptr nonnull %5) #7
  %6 = getelementptr inbounds nuw i8, ptr %0, i64 224
  %7 = load ptr, ptr %6, align 8
  %8 = call fastcc ptr @_get_avail_map(ptr noundef %7, ptr noundef %3, ptr noundef %4, ptr noundef %5)
  store ptr %8, ptr %2, align 8
  %.not = icmp eq ptr %8, null
  br i1 %.not, label %.critedge, label %9

9:                                                ; preds = %1
  %10 = tail call i32 @slurm_bit_set_count(ptr noundef nonnull %8) #7
  %11 = icmp eq i32 %10, 0
  call void @llvm.lifetime.end.p0(i64 2, ptr nonnull %5) #7
  call void @llvm.lifetime.end.p0(i64 2, ptr nonnull %4) #7
  call void @llvm.lifetime.end.p0(i64 2, ptr nonnull %3) #7
  br i1 %11, label %37, label %12

12:                                               ; preds = %9
  %13 = getelementptr inbounds nuw i8, ptr %0, i64 72
  store i16 256, ptr %13, align 8
  %14 = load i32, ptr getelementptr inbounds nuw (i8, ptr @slurm_conf, i64 1424), align 8
  %15 = and i32 %14, 1
  %.not15 = icmp eq i32 %15, 0
  %spec.store.select = select i1 %.not15, i16 256, i16 257
  store i16 %spec.store.select, ptr %13, align 8
  %16 = getelementptr inbounds nuw i8, ptr %0, i64 80
  tail call void @slurm_xfree(ptr noundef nonnull %16) #7
  %17 = tail call ptr @slurm_bit_fmt_hexmask(ptr noundef nonnull %8) #7
  store ptr %17, ptr %16, align 8
  %18 = tail call i32 @slurm_get_log_level() #7
  %19 = icmp sgt i32 %18, 2
  br i1 %19, label %20, label %24

20:                                               ; preds = %12
  %21 = getelementptr inbounds nuw i8, ptr %0, i64 48
  %22 = load i32, ptr %21, align 8
  %23 = load ptr, ptr %16, align 8
  tail call void (i32, ptr, ...) @slurm_log_var(i32 noundef 3, ptr noundef nonnull @.str, ptr noundef nonnull @plugin_type, ptr noundef nonnull @__func__.batch_bind, i32 noundef %22, ptr noundef %23) #7
  br label %24

24:                                               ; preds = %20, %12
  call fastcc void @_lllp_map_abstract_masks(i32 noundef 1, ptr noundef nonnull %2)
  %25 = load i16, ptr %13, align 8
  %26 = and i16 %25, 16
  %.not16 = icmp eq i16 %26, 0
  br i1 %.not16, label %28, label %27

27:                                               ; preds = %24
  call fastcc void @_match_masks_to_ldom(i32 noundef 1, ptr noundef nonnull %2)
  br label %28

28:                                               ; preds = %27, %24
  call void @slurm_xfree(ptr noundef nonnull %16) #7
  %29 = load ptr, ptr %2, align 8
  %30 = call ptr @slurm_bit_fmt_hexmask(ptr noundef %29) #7
  store ptr %30, ptr %16, align 8
  %31 = call i32 @slurm_get_log_level() #7
  %32 = icmp sgt i32 %31, 2
  br i1 %32, label %33, label %41

33:                                               ; preds = %28
  %34 = getelementptr inbounds nuw i8, ptr %0, i64 48
  %35 = load i32, ptr %34, align 8
  %36 = load ptr, ptr %16, align 8
  call void (i32, ptr, ...) @slurm_log_var(i32 noundef 3, ptr noundef nonnull @.str.1, ptr noundef nonnull @plugin_type, ptr noundef nonnull @__func__.batch_bind, i32 noundef %35, ptr noundef %36) #7
  br label %41

.critedge:                                        ; preds = %1
  call void @llvm.lifetime.end.p0(i64 2, ptr nonnull %5) #7
  call void @llvm.lifetime.end.p0(i64 2, ptr nonnull %4) #7
  call void @llvm.lifetime.end.p0(i64 2, ptr nonnull %3) #7
  br label %37

37:                                               ; preds = %.critedge, %9
  %38 = getelementptr inbounds nuw i8, ptr %0, i64 48
  %39 = load i32, ptr %38, align 8
  %40 = tail call i32 (ptr, ...) @slurm_error(ptr noundef nonnull @.str.2, i32 noundef %39) #7
  br label %41

41:                                               ; preds = %37, %33, %28
  %42 = load ptr, ptr %2, align 8
  %.not17 = icmp eq ptr %42, null
  br i1 %.not17, label %44, label %43

43:                                               ; preds = %41
  call void @slurm_bit_free(ptr noundef nonnull %2) #7
  br label %44

44:                                               ; preds = %43, %41
  call void @llvm.lifetime.end.p0(i64 8, ptr nonnull %2) #7
  ret void
}